target datalayout = "e-m:e-p270:32:32-p271:32:32-p272:64:64-i64:64-i128:128-f80:128-n8:16:32:64-S128"
target triple = "x86_64-pc-linux-gnu"

%struct._object = type { %union.anon.41, ptr }
%union.anon.41 = type { i64 }
%struct.PyVarObject = type { %struct._object, i64 }
%struct.PyASCIIObject = type { %struct._object, i64, i64, %struct.anon.46 }
%struct.anon.46 = type { i16, i16 }
%struct.PyCompactUnicodeObject = type { %struct.PyASCIIObject, i64, ptr }
%struct._typeobject = type { %struct.PyVarObject, ptr, i64, i64, ptr, i64, ptr, ptr, ptr, ptr, ptr, ptr, ptr, ptr, ptr, ptr, ptr, ptr, ptr, i64, ptr, ptr, ptr, ptr, i64, ptr, ptr, ptr, ptr, ptr, ptr, ptr, ptr, ptr, i64, ptr, ptr, ptr, ptr, ptr, ptr, ptr, ptr, ptr, ptr, ptr, i32, ptr, ptr, i8, i16 }
%struct.PyUnicodeObject = type { %struct.PyCompactUnicodeObject, %union.anon.806 }
%union.anon.806 = type { ptr }
%struct.anon.42 = type { i32, i32 }

@PyExc_TypeError = external global ptr, align 8
@.str.232 = private unnamed_addr constant [7 x i8] c"center\00", align 1
@.str.285 = private unnamed_addr constant [59 x i8] c"The fill character must be a unicode character, not %.100s\00", align 1
@.str.286 = private unnamed_addr constant [54 x i8] c"The fill character must be exactly one character long\00", align 1

; Function Attrs: inlinehint nounwind uwtable
define internal i32 @PyUnicode_IS_ASCII(ptr noundef %0) #2 {
  %2 = alloca ptr, align 8
  store ptr %0, ptr %2, align 8, !tbaa !4
  %3 = load ptr, ptr %2, align 8, !tbaa !4
  %4 = getelementptr inbounds nuw %struct.PyASCIIObject, ptr %3, i32 0, i32 3
  %5 = getelementptr inbounds nuw %struct.anon.46, ptr %4, i32 0, i32 1
  %6 = load i16, ptr %5, align 2
  %7 = lshr i16 %6, 4
  %8 = and i16 %7, 1
  %9 = zext i16 %8 to i32
  ret i32 %9
}

; Function Attrs: inlinehint nounwind uwtable
define internal ptr @_PyUnicode_NONCOMPACT_DATA(ptr noundef %0) #2 {
  %2 = alloca ptr, align 8
  %3 = alloca ptr, align 8
  store ptr %0, ptr %2, align 8, !tbaa !4
  call void @llvm.lifetime.start.p0(i64 8, ptr %3) #12
  %4 = load ptr, ptr %2, align 8, !tbaa !4
  %5 = getelementptr inbounds nuw %struct.PyUnicodeObject, ptr %4, i32 0, i32 1
  %6 = load ptr, ptr %5, align 8, !tbaa !191
  store ptr %6, ptr %3, align 8, !tbaa !180
  %7 = load ptr, ptr %3, align 8, !tbaa !180
  call void @llvm.lifetime.end.p0(i64 8, ptr %3) #12
  ret ptr %7
}

; Function Attrs: inlinehint nounwind uwtable
define internal ptr @_PyUnicode_COMPACT_DATA(ptr noundef %0) #2 {
  %2 = alloca ptr, align 8
  %3 = alloca ptr, align 8
  store ptr %0, ptr %3, align 8, !tbaa !4
  %4 = load ptr, ptr %3, align 8, !tbaa !4
  %5 = call i32 @PyUnicode_IS_ASCII(ptr noundef %4)
  %6 = icmp ne i32 %5, 0
  br i1 %6, label %7, label %10

7:                                                ; preds = %1
  %8 = load ptr, ptr %3, align 8, !tbaa !4
  %9 = getelementptr %struct.PyASCIIObject, ptr %8, i64 1
  store ptr %9, ptr %2, align 8
  br label %13

10:                                               ; preds = %1
  %11 = load ptr, ptr %3, align 8, !tbaa !4
  %12 = getelementptr %struct.PyCompactUnicodeObject, ptr %11, i64 1
  store ptr %12, ptr %2, align 8
  br label %13

13:                                               ; preds = %10, %7
  %14 = load ptr, ptr %2, align 8
  ret ptr %14
}

; Function Attrs: inlinehint nounwind uwtable
define internal i32 @PyUnicode_IS_COMPACT(ptr noundef %0) #2 {
  %2 = alloca ptr, align 8
  store ptr %0, ptr %2, align 8, !tbaa !4
  %3 = load ptr, ptr %2, align 8, !tbaa !4
  %4 = getelementptr inbounds nuw %struct.PyASCIIObject, ptr %3, i32 0, i32 3
  %5 = getelementptr inbounds nuw %struct.anon.46, ptr %4, i32 0, i32 1
  %6 = load i16, ptr %5, align 2
  %7 = lshr i16 %6, 3
  %8 = and i16 %7, 1
  %9 = zext i16 %8 to i32
  ret i32 %9
}

; Function Attrs: inlinehint nounwind uwtable
define internal ptr @_PyUnicode_DATA(ptr noundef %0) #2 {
  %2 = alloca ptr, align 8
  %3 = alloca ptr, align 8
  store ptr %0, ptr %3, align 8, !tbaa !4
  %4 = load ptr, ptr %3, align 8, !tbaa !4
  %5 = call i32 @PyUnicode_IS_COMPACT(ptr noundef %4)
  %6 = icmp ne i32 %5, 0
  br i1 %6, label %7, label %10

7:                                                ; preds = %1
  %8 = load ptr, ptr %3, align 8, !tbaa !4
  %9 = call ptr @_PyUnicode_COMPACT_DATA(ptr noundef %8)
  store ptr %9, ptr %2, align 8
  br label %13

10:                                               ; preds = %1
  %11 = load ptr, ptr %3, align 8, !tbaa !4
  %12 = call ptr @_PyUnicode_NONCOMPACT_DATA(ptr noundef %11)
  store ptr %12, ptr %2, align 8
  br label %13

13:                                               ; preds = %10, %7
  %14 = load ptr, ptr %2, align 8
  ret ptr %14
}

; Function Attrs: inlinehint nounwind uwtable
define internal i32 @PyUnicode_READ_CHAR(ptr noundef %0, i64 noundef %1) #2 {
  %3 = alloca i32, align 4
  %4 = alloca ptr, align 8
  %5 = alloca i64, align 8
  %6 = alloca i32, align 4
  %7 = alloca i32, align 4
  store ptr %0, ptr %4, align 8, !tbaa !4
  store i64 %1, ptr %5, align 8, !tbaa !185
  call void @llvm.lifetime.start.p0(i64 4, ptr %6) #12
  %8 = load ptr, ptr %4, align 8, !tbaa !4
  %9 = getelementptr inbounds nuw %struct.PyASCIIObject, ptr %8, i32 0, i32 3
  %10 = getelementptr inbounds nuw %struct.anon.46, ptr %9, i32 0, i32 1
  %11 = load i16, ptr %10, align 2
  %12 = and i16 %11, 7
  %13 = zext i16 %12 to i32
  store i32 %13, ptr %6, align 4, !tbaa !190
  %14 = load i32, ptr %6, align 4, !tbaa !190
  %15 = icmp eq i32 %14, 1
  br i1 %15, label %16, label %23

16:                                               ; preds = %2
  %17 = load ptr, ptr %4, align 8, !tbaa !4
  %18 = call ptr @_PyUnicode_DATA(ptr noundef %17)
  %19 = load i64, ptr %5, align 8, !tbaa !185
  %20 = getelementptr i8, ptr %18, i64 %19
  %21 = load i8, ptr %20, align 1, !tbaa !191
  %22 = zext i8 %21 to i32
  store i32 %22, ptr %3, align 4
  store i32 1, ptr %7, align 4
  br label %39

23:                                               ; preds = %2
  %24 = load i32, ptr %6, align 4, !tbaa !190
  %25 = icmp eq i32 %24, 2
  br i1 %25, label %26, label %33

26:                                               ; preds = %23
  %27 = load ptr, ptr %4, align 8, !tbaa !4
  %28 = call ptr @_PyUnicode_DATA(ptr noundef %27)
  %29 = load i64, ptr %5, align 8, !tbaa !185
  %30 = getelementptr i16, ptr %28, i64 %29
  %31 = load i16, ptr %30, align 2, !tbaa !204
  %32 = zext i16 %31 to i32
  store i32 %32, ptr %3, align 4
  store i32 1, ptr %7, align 4
  br label %39

33:                                               ; preds = %23
  %34 = load ptr, ptr %4, align 8, !tbaa !4
  %35 = call ptr @_PyUnicode_DATA(ptr noundef %34)
  %36 = load i64, ptr %5, align 8, !tbaa !185
  %37 = getelementptr i32, ptr %35, i64 %36
  %38 = load i32, ptr %37, align 4, !tbaa !190
  store i32 %38, ptr %3, align 4
  store i32 1, ptr %7, align 4
  br label %39

39:                                               ; preds = %33, %26, %16
  call void @llvm.lifetime.end.p0(i64 4, ptr %6) #12
  %40 = load i32, ptr %3, align 4
  ret i32 %40
}

; Function Attrs: inlinehint nounwind uwtable
define internal i64 @PyUnicode_GET_LENGTH(ptr noundef %0) #2 {
  %2 = alloca ptr, align 8
  store ptr %0, ptr %2, align 8, !tbaa !4
  %3 = load ptr, ptr %2, align 8, !tbaa !4
  %4 = getelementptr inbounds nuw %struct.PyASCIIObject, ptr %3, i32 0, i32 1
  %5 = load i64, ptr %4, align 8, !tbaa !194
  ret i64 %5
}

; Function Attrs: inlinehint nounwind uwtable
define internal i32 @PyType_HasFeature(ptr noundef %0, i64 noundef %1) #2 {
  %3 = alloca ptr, align 8
  %4 = alloca i64, align 8
  %5 = alloca i64, align 8
  store ptr %0, ptr %3, align 8, !tbaa !196
  store i64 %1, ptr %4, align 8, !tbaa !185
  call void @llvm.lifetime.start.p0(i64 8, ptr %5) #12
  %6 = load ptr, ptr %3, align 8, !tbaa !196
  %7 = getelementptr inbounds nuw %struct._typeobject, ptr %6, i32 0, i32 19
  %8 = load i64, ptr %7, align 8, !tbaa !197
  store i64 %8, ptr %5, align 8, !tbaa !185
  %9 = load i64, ptr %5, align 8, !tbaa !185
  %10 = load i64, ptr %4, align 8, !tbaa !185
  %11 = and i64 %9, %10
  %12 = icmp ne i64 %11, 0
  %13 = zext i1 %12 to i32
  call void @llvm.lifetime.end.p0(i64 8, ptr %5) #12
  ret i32 %13
}

; Function Attrs: inlinehint nounwind uwtable
define internal ptr @_Py_TYPE(ptr noundef %0) #2 {
  %2 = alloca ptr, align 8
  store ptr %0, ptr %2, align 8, !tbaa !4
  %3 = load ptr, ptr %2, align 8, !tbaa !4
  %4 = getelementptr inbounds nuw %struct._object, ptr %3, i32 0, i32 1
  %5 = load ptr, ptr %4, align 8, !tbaa !202
  ret ptr %5
}

; Function Attrs: alwaysinline nounwind uwtable
define internal i32 @_Py_IsImmortal(ptr noundef %0) #9 {
  %2 = alloca ptr, align 8
  store ptr %0, ptr %2, align 8, !tbaa !4
  %3 = load ptr, ptr %2, align 8, !tbaa !4
  %4 = getelementptr inbounds nuw %struct._object, ptr %3, i32 0, i32 0
  %5 = getelementptr inbounds nuw %struct.anon.42, ptr %4, i32 0, i32 0
  %6 = load i32, ptr %5, align 8, !tbaa !191
  %7 = icmp slt i32 %6, 0
  %8 = zext i1 %7 to i32
  ret i32 %8
}

; Function Attrs: nounwind uwtable
define internal ptr @unicode_center_impl(ptr noundef %0, i64 noundef %1, i32 noundef %2) #0 {
  %4 = alloca ptr, align 8
  %5 = alloca ptr, align 8
  %6 = alloca i64, align 8
  %7 = alloca i32, align 4
  %8 = alloca i64, align 8
  %9 = alloca i64, align 8
  %10 = alloca i32, align 4
  store ptr %0, ptr %5, align 8, !tbaa !4
  store i64 %1, ptr %6, align 8, !tbaa !185
  store i32 %2, ptr %7, align 4, !tbaa !190
  call void @llvm.lifetime.start.p0(i64 8, ptr %8) #12
  call void @llvm.lifetime.start.p0(i64 8, ptr %9) #12
  %11 = load ptr, ptr %5, align 8, !tbaa !4
  %12 = call i64 @PyUnicode_GET_LENGTH(ptr noundef %11)
  %13 = load i64, ptr %6, align 8, !tbaa !185
  %14 = icmp sge i64 %12, %13
  br i1 %14, label %15, label %18

15:                                               ; preds = %3
  %16 = load ptr, ptr %5, align 8, !tbaa !4
  %17 = call ptr @unicode_result_unchanged(ptr noundef %16)
  store ptr %17, ptr %4, align 8
  store i32 1, ptr %10, align 4
  br label %37

18:                                               ; preds = %3
  %19 = load i64, ptr %6, align 8, !tbaa !185
  %20 = load ptr, ptr %5, align 8, !tbaa !4
  %21 = call i64 @PyUnicode_GET_LENGTH(ptr noundef %20)
  %22 = sub i64 %19, %21
  store i64 %22, ptr %8, align 8, !tbaa !185
  %23 = load i64, ptr %8, align 8, !tbaa !185
  %24 = sdiv i64 %23, 2
  %25 = load i64, ptr %8, align 8, !tbaa !185
  %26 = load i64, ptr %6, align 8, !tbaa !185
  %27 = and i64 %25, %26
  %28 = and i64 %27, 1
  %29 = add i64 %24, %28
  store i64 %29, ptr %9, align 8, !tbaa !185
  %30 = load ptr, ptr %5, align 8, !tbaa !4
  %31 = load i64, ptr %9, align 8, !tbaa !185
  %32 = load i64, ptr %8, align 8, !tbaa !185
  %33 = load i64, ptr %9, align 8, !tbaa !185
  %34 = sub i64 %32, %33
  %35 = load i32, ptr %7, align 4, !tbaa !190
  %36 = call ptr @pad(ptr noundef %30, i64 noundef %31, i64 noundef %34, i32 noundef %35)
  store ptr %36, ptr %4, align 8
  store i32 1, ptr %10, align 4
  br label %37

37:                                               ; preds = %18, %15
  call void @llvm.lifetime.end.p0(i64 8, ptr %9) #12
  call void @llvm.lifetime.end.p0(i64 8, ptr %8) #12
  %38 = load ptr, ptr %4, align 8
  ret ptr %38
}

; Function Attrs: nounwind uwtable
define internal i32 @convert_uc(ptr noundef %0, ptr noundef %1) #0 {
  %3 = alloca i32, align 4
  %4 = alloca ptr, align 8
  %5 = alloca ptr, align 8
  %6 = alloca ptr, align 8
  %7 = alloca i32, align 4
  store ptr %0, ptr %4, align 8, !tbaa !4
  store ptr %1, ptr %5, align 8, !tbaa !180
  call void @llvm.lifetime.start.p0(i64 8, ptr %6) #12
  %8 = load ptr, ptr %5, align 8, !tbaa !180
  store ptr %8, ptr %6, align 8, !tbaa !210
  %9 = load ptr, ptr %4, align 8, !tbaa !4
  %10 = call ptr @_Py_TYPE(ptr noundef %9)
  %11 = call i32 @PyType_HasFeature(ptr noundef %10, i64 noundef 268435456)
  %12 = icmp ne i32 %11, 0
  br i1 %12, label %20, label %13

13:                                               ; preds = %2
  %14 = load ptr, ptr @PyExc_TypeError, align 8, !tbaa !4
  %15 = load ptr, ptr %4, align 8, !tbaa !4
  %16 = call ptr @_Py_TYPE(ptr noundef %15)
  %17 = getelementptr inbounds nuw %struct._typeobject, ptr %16, i32 0, i32 1
  %18 = load ptr, ptr %17, align 8, !tbaa !284
  %19 = call ptr (ptr, ptr, ...) @PyErr_Format(ptr noundef %14, ptr noundef @.str.285, ptr noundef %18)
  store i32 0, ptr %3, align 4
  store i32 1, ptr %7, align 4
  br label %30

20:                                               ; preds = %2
  %21 = load ptr, ptr %4, align 8, !tbaa !4
  %22 = call i64 @PyUnicode_GET_LENGTH(ptr noundef %21)
  %23 = icmp ne i64 %22, 1
  br i1 %23, label %24, label %26

24:                                               ; preds = %20
  %25 = load ptr, ptr @PyExc_TypeError, align 8, !tbaa !4
  call void @PyErr_SetString(ptr noundef %25, ptr noundef @.str.286)
  store i32 0, ptr %3, align 4
  store i32 1, ptr %7, align 4
  br label %30

26:                                               ; preds = %20
  %27 = load ptr, ptr %4, align 8, !tbaa !4
  %28 = call i32 @PyUnicode_READ_CHAR(ptr noundef %27, i64 noundef 0)
  %29 = load ptr, ptr %6, align 8, !tbaa !210
  store i32 %28, ptr %29, align 4, !tbaa !190
  store i32 1, ptr %3, align 4
  store i32 1, ptr %7, align 4
  br label %30

30:                                               ; preds = %26, %24, %13
  call void @llvm.lifetime.end.p0(i64 8, ptr %6) #12
  %31 = load i32, ptr %3, align 4
  ret i32 %31
}

; Function Attrs: alwaysinline nounwind uwtable
define internal void @Py_DECREF(ptr noundef %0) #9 {
  %2 = alloca ptr, align 8
  store ptr %0, ptr %2, align 8, !tbaa !4
  %3 = load ptr, ptr %2, align 8, !tbaa !4
  %4 = call i32 @_Py_IsImmortal(ptr noundef %3)
  %5 = icmp ne i32 %4, 0
  br i1 %5, label %6, label %7

6:                                                ; preds = %1
  br label %16

7:                                                ; preds = %1
  %8 = load ptr, ptr %2, align 8, !tbaa !4
  %9 = getelementptr inbounds nuw %struct._object, ptr %8, i32 0, i32 0
  %10 = getelementptr inbounds nuw %struct.anon.42, ptr %9, i32 0, i32 0
  %11 = load i32, ptr %10, align 8, !tbaa !191
  %12 = add i32 %11, -1
  store i32 %12, ptr %10, align 8, !tbaa !191
  %13 = icmp eq i32 %12, 0
  br i1 %13, label %14, label %16

14:                                               ; preds = %7
  %15 = load ptr, ptr %2, align 8, !tbaa !4
  call void @_Py_Dealloc(ptr noundef %15)
  br label %16

16:                                               ; preds = %6, %14, %7
  ret void
}

; Function Attrs: nounwind uwtable
define internal ptr @unicode_center(ptr noundef %0, ptr noundef %1, i64 noundef %2) #0 {
  %4 = alloca ptr, align 8
  %5 = alloca ptr, align 8
  %6 = alloca ptr, align 8
  %7 = alloca i64, align 8
  %8 = alloca ptr, align 8
  %9 = alloca i64, align 8
  %10 = alloca i32, align 4
  %11 = alloca i64, align 8
  %12 = alloca ptr, align 8
  %13 = alloca i32, align 4
  store ptr %0, ptr %5, align 8, !tbaa !4
  store ptr %1, ptr %6, align 8, !tbaa !222
  store i64 %2, ptr %7, align 8, !tbaa !185
  call void @llvm.lifetime.start.p0(i64 8, ptr %8) #12
  store ptr null, ptr %8, align 8, !tbaa !4
  call void @llvm.lifetime.start.p0(i64 8, ptr %9) #12
  call void @llvm.lifetime.start.p0(i64 4, ptr %10) #12
  store i32 32, ptr %10, align 4, !tbaa !190
  %14 = load i64, ptr %7, align 8, !tbaa !185
  %15 = icmp sle i64 1, %14
  br i1 %15, label %16, label %19

16:                                               ; preds = %3
  %17 = load i64, ptr %7, align 8, !tbaa !185
  %18 = icmp sle i64 %17, 2
  br i1 %18, label %24, label %19

19:                                               ; preds = %16, %3
  %20 = load i64, ptr %7, align 8, !tbaa !185
  %21 = call i32 @_PyArg_CheckPositional(ptr noundef @.str.232, i64 noundef %20, i64 noundef 1, i64 noundef 2)
  %22 = icmp ne i32 %21, 0
  br i1 %22, label %24, label %23

23:                                               ; preds = %19
  br label %63

24:                                               ; preds = %19, %16
  call void @llvm.lifetime.start.p0(i64 8, ptr %11) #12
  store i64 -1, ptr %11, align 8, !tbaa !185
  call void @llvm.lifetime.start.p0(i64 8, ptr %12) #12
  %25 = load ptr, ptr %6, align 8, !tbaa !222
  %26 = getelementptr ptr, ptr %25, i64 0
  %27 = load ptr, ptr %26, align 8, !tbaa !4
  %28 = call ptr @_PyNumber_Index(ptr noundef %27)
  store ptr %28, ptr %12, align 8, !tbaa !4
  %29 = load ptr, ptr %12, align 8, !tbaa !4
  %30 = icmp ne ptr %29, null
  br i1 %30, label %31, label %35

31:                                               ; preds = %24
  %32 = load ptr, ptr %12, align 8, !tbaa !4
  %33 = call i64 @PyLong_AsSsize_t(ptr noundef %32)
  store i64 %33, ptr %11, align 8, !tbaa !185
  %34 = load ptr, ptr %12, align 8, !tbaa !4
  call void @Py_DECREF(ptr noundef %34)
  br label %35

35:                                               ; preds = %31, %24
  %36 = load i64, ptr %11, align 8, !tbaa !185
  %37 = icmp eq i64 %36, -1
  br i1 %37, label %38, label %42

38:                                               ; preds = %35
  %39 = call ptr @PyErr_Occurred()
  %40 = icmp ne ptr %39, null
  br i1 %40, label %41, label %42

41:                                               ; preds = %38
  store i32 2, ptr %13, align 4
  br label %44

42:                                               ; preds = %38, %35
  %43 = load i64, ptr %11, align 8, !tbaa !185
  store i64 %43, ptr %9, align 8, !tbaa !185
  store i32 0, ptr %13, align 4
  br label %44

44:                                               ; preds = %41, %42
  call void @llvm.lifetime.end.p0(i64 8, ptr %12) #12
  call void @llvm.lifetime.end.p0(i64 8, ptr %11) #12
  %45 = load i32, ptr %13, align 4
  switch i32 %45, label %65 [
    i32 0, label %46
    i32 2, label %63
  ]

46:                                               ; preds = %44
  %47 = load i64, ptr %7, align 8, !tbaa !185
  %48 = icmp slt i64 %47, 2
  br i1 %48, label %49, label %50

49:                                               ; preds = %46
  br label %58

50:                                               ; preds = %46
  %51 = load ptr, ptr %6, align 8, !tbaa !222
  %52 = getelementptr ptr, ptr %51, i64 1
  %53 = load ptr, ptr %52, align 8, !tbaa !4
  %54 = call i32 @convert_uc(ptr noundef %53, ptr noundef %10)
  %55 = icmp ne i32 %54, 0
  br i1 %55, label %57, label %56

56:                                               ; preds = %50
  br label %63

57:                                               ; preds = %50
  br label %58

58:                                               ; preds = %57, %49
  %59 = load ptr, ptr %5, align 8, !tbaa !4
  %60 = load i64, ptr %9, align 8, !tbaa !185
  %61 = load i32, ptr %10, align 4, !tbaa !190
  %62 = call ptr @unicode_center_impl(ptr noundef %59, i64 noundef %60, i32 noundef %61)
  store ptr %62, ptr %8, align 8, !tbaa !4
  br label %63

63:                                               ; preds = %58, %44, %56, %23
  %64 = load ptr, ptr %8, align 8, !tbaa !4
  store ptr %64, ptr %4, align 8
  store i32 1, ptr %13, align 4
  br label %65

65:                                               ; preds = %63, %44
  call void @llvm.lifetime.end.p0(i64 4, ptr %10) #12
  call void @llvm.lifetime.end.p0(i64 8, ptr %9) #12
  call void @llvm.lifetime.end.p0(i64 8, ptr %8) #12
  %66 = load ptr, ptr %4, align 8
  ret ptr %66
}